; Function Attrs: mustprogress uwtable
define dso_local void @_ZN18btStaticPlaneShapeC2ERK9btVector3f(ptr noundef nonnull align 8 dereferenceable(104) %this, ptr nocapture noundef nonnull readonly align 4 dereferenceable(16) %planeNormal, float noundef %planeConstant) unnamed_addr #0 align 2 personality ptr @__gxx_personality_v0 {
invoke.cont3:
  tail call void @_ZN14btConcaveShapeC2Ev(ptr noundef nonnull align 8 dereferenceable(36) %this)
  store ptr getelementptr inbounds ({ [19 x ptr] }, ptr @_ZTV18btStaticPlaneShape, i64 0, i32 0, i64 2), ptr %this, align 8
  %nrm.sroa.0.0.copyload.i = load <2 x float>, ptr %planeNormal, align 4
  %nrm.sroa.6.0.this.sroa_idx.i = getelementptr inbounds i8, ptr %planeNormal, i64 8
  %nrm.sroa.6.0.copyload.i = load <2 x float>, ptr %nrm.sroa.6.0.this.sroa_idx.i, align 4
  %0 = fmul <2 x float> %nrm.sroa.0.0.copyload.i, %nrm.sroa.0.0.copyload.i
  %mul8.i.i.i.i.i = extractelement <2 x float> %0, i64 1
  %1 = extractelement <2 x float> %nrm.sroa.0.0.copyload.i, i64 0
  %2 = tail call float @llvm.fmuladd.f32(float %1, float %1, float %mul8.i.i.i.i.i)
  %nrm.sroa.6.8.vec.extract.i = extractelement <2 x float> %nrm.sroa.6.0.copyload.i, i64 0
  %3 = tail call noundef float @llvm.fmuladd.f32(float %nrm.sroa.6.8.vec.extract.i, float %nrm.sroa.6.8.vec.extract.i, float %2)
  %sqrt.i.i.i = tail call noundef float @llvm.sqrt.f32(float %3)
  %div.i.i.i = fdiv float 1.000000e+00, %sqrt.i.i.i
  %4 = insertelement <2 x float> poison, float %div.i.i.i, i64 0
  %5 = shufflevector <2 x float> %4, <2 x float> poison, <2 x i32> zeroinitializer
  %6 = fmul <2 x float> %nrm.sroa.0.0.copyload.i, %5
  %mul7.i.i.i.i = fmul float %nrm.sroa.6.8.vec.extract.i, %div.i.i.i
  %nrm.sroa.6.8.vec.insert.i = insertelement <2 x float> %nrm.sroa.6.0.copyload.i, float %mul7.i.i.i.i, i64 0
  %m_planeNormal = getelementptr inbounds i8, ptr %this, i64 68
  store <2 x float> %6, ptr %m_planeNormal, align 4
  %7 = getelementptr inbounds i8, ptr %this, i64 76
  store <2 x float> %nrm.sroa.6.8.vec.insert.i, ptr %7, align 4
  %m_planeConstant = getelementptr inbounds i8, ptr %this, i64 84
  store float %planeConstant, ptr %m_planeConstant, align 4
  %m_localScaling = getelementptr inbounds i8, ptr %this, i64 88
  store <4 x float> <float 1.000000e+00, float 1.000000e+00, float 1.000000e+00, float 0.000000e+00>, ptr %m_localScaling, align 8
  %m_shapeType = getelementptr inbounds i8, ptr %this, i64 8
  store i32 28, ptr %m_shapeType, align 8
  ret void
}